target datalayout = "e-m:e-p270:32:32-p271:32:32-p272:64:64-i64:64-i128:128-f80:128-n8:16:32:64-S128"
target triple = "x86_64-pc-linux-gnu"

%struct.strbuf = type { i64, i64, ptr }

@default_cache = internal global { %struct.strbuf, i32, i32, i32, [4 x i8] } { %struct.strbuf { i64 0, i64 0, ptr @strbuf_slopbuf }, i32 0, i32 0, i32 0, [4 x i8] zeroinitializer }, align 8
@.str = private unnamed_addr constant [21 x i8] c"failed to lstat '%s'\00", align 1
@.str.2 = private unnamed_addr constant [1 x i8] zeroinitializer, align 1
@git_gettext_enabled = external global i32, align 4

; Function Attrs: inlinehint nounwind uwtable
define internal ptr @_(ptr noundef %0) #4 {
  %2 = alloca ptr, align 8
  %3 = alloca ptr, align 8
  store ptr %0, ptr %3, align 8, !tbaa !9
  %4 = load ptr, ptr %3, align 8, !tbaa !9
  %5 = load i8, ptr %4, align 1, !tbaa !21
  %6 = icmp ne i8 %5, 0
  br i1 %6, label %8, label %7

7:                                                ; preds = %1
  store ptr @.str.2, ptr %2, align 8
  br label %16

8:                                                ; preds = %1
  %9 = load i32, ptr @git_gettext_enabled, align 4, !tbaa !11
  %10 = icmp ne i32 %9, 0
  br i1 %10, label %13, label %11

11:                                               ; preds = %8
  %12 = load ptr, ptr %3, align 8, !tbaa !9
  store ptr %12, ptr %2, align 8
  br label %16

13:                                               ; preds = %8
  %14 = load ptr, ptr %3, align 8, !tbaa !9
  %15 = call ptr @dcgettext(ptr noundef null, ptr noundef %14, i32 noundef 5) #8
  store ptr %15, ptr %2, align 8
  br label %16

16:                                               ; preds = %13, %11, %7
  %17 = load ptr, ptr %2, align 8
  ret ptr %17
}

; Function Attrs: nounwind uwtable
define internal i32 @threaded_check_leading_path(ptr noundef %0, ptr noundef %1, i32 noundef %2, i32 noundef %3) #0 {
  %5 = alloca i32, align 4
  %6 = alloca ptr, align 8
  %7 = alloca ptr, align 8
  %8 = alloca i32, align 4
  %9 = alloca i32, align 4
  %10 = alloca i32, align 4
  %11 = alloca i32, align 4
  %12 = alloca i32, align 4
  %13 = alloca i32, align 4
  %14 = alloca ptr, align 8
  store ptr %0, ptr %6, align 8, !tbaa !4
  store ptr %1, ptr %7, align 8, !tbaa !9
  store i32 %2, ptr %8, align 4, !tbaa !11
  store i32 %3, ptr %9, align 4, !tbaa !11
  call void @llvm.lifetime.start.p0(i64 4, ptr %10) #8
  call void @llvm.lifetime.start.p0(i64 4, ptr %11) #8
  %15 = load ptr, ptr %6, align 8, !tbaa !4
  %16 = load ptr, ptr %7, align 8, !tbaa !9
  %17 = load i32, ptr %8, align 4, !tbaa !11
  %18 = call i32 @lstat_cache_matchlen(ptr noundef %15, ptr noundef %16, i32 noundef %17, ptr noundef %10, i32 noundef 7, i32 noundef 0)
  store i32 %18, ptr %11, align 4, !tbaa !11
  call void @llvm.lifetime.start.p0(i64 4, ptr %12) #8
  %19 = call ptr @__errno_location() #9
  %20 = load i32, ptr %19, align 4, !tbaa !11
  store i32 %20, ptr %12, align 4, !tbaa !11
  %21 = load i32, ptr %10, align 4, !tbaa !11
  %22 = and i32 %21, 2
  %23 = icmp ne i32 %22, 0
  br i1 %23, label %24, label %25

24:                                               ; preds = %4
  store i32 0, ptr %5, align 4
  store i32 1, ptr %13, align 4
  br label %50

25:                                               ; preds = %4
  %26 = load i32, ptr %10, align 4, !tbaa !11
  %27 = and i32 %26, 1
  %28 = icmp ne i32 %27, 0
  br i1 %28, label %29, label %30

29:                                               ; preds = %25
  store i32 -1, ptr %5, align 4
  store i32 1, ptr %13, align 4
  br label %50

30:                                               ; preds = %25
  br label %31

31:                                               ; preds = %30
  %32 = load i32, ptr %9, align 4, !tbaa !11
  %33 = icmp ne i32 %32, 0
  br i1 %33, label %34, label %48

34:                                               ; preds = %31
  %35 = load i32, ptr %10, align 4, !tbaa !11
  %36 = and i32 %35, 8
  %37 = icmp ne i32 %36, 0
  br i1 %37, label %38, label %48

38:                                               ; preds = %34
  call void @llvm.lifetime.start.p0(i64 8, ptr %14) #8
  %39 = load ptr, ptr %7, align 8, !tbaa !9
  %40 = load i32, ptr %11, align 4, !tbaa !11
  %41 = sext i32 %40 to i64
  %42 = call ptr @xmemdupz(ptr noundef %39, i64 noundef %41)
  store ptr %42, ptr %14, align 8, !tbaa !9
  %43 = load i32, ptr %12, align 4, !tbaa !11
  %44 = call ptr @__errno_location() #9
  store i32 %43, ptr %44, align 4, !tbaa !11
  %45 = call ptr @_(ptr noundef @.str)
  %46 = load ptr, ptr %14, align 8, !tbaa !9
  call void (ptr, ...) @warning_errno(ptr noundef %45, ptr noundef %46)
  %47 = load ptr, ptr %14, align 8, !tbaa !9
  call void @free(ptr noundef %47) #8
  call void @llvm.lifetime.end.p0(i64 8, ptr %14) #8
  br label %48

48:                                               ; preds = %38, %34, %31
  %49 = load i32, ptr %11, align 4, !tbaa !11
  store i32 %49, ptr %5, align 4
  store i32 1, ptr %13, align 4
  br label %50

50:                                               ; preds = %48, %29, %24
  call void @llvm.lifetime.end.p0(i64 4, ptr %12) #8
  call void @llvm.lifetime.end.p0(i64 4, ptr %11) #8
  call void @llvm.lifetime.end.p0(i64 4, ptr %10) #8
  %51 = load i32, ptr %5, align 4
  ret i32 %51
}

; Function Attrs: nounwind uwtable
define dso_local i32 @check_leading_path(ptr noundef %0, i32 noundef %1, i32 noundef %2) #0 {
  %4 = alloca ptr, align 8
  %5 = alloca i32, align 4
  %6 = alloca i32, align 4
  store ptr %0, ptr %4, align 8, !tbaa !9
  store i32 %1, ptr %5, align 4, !tbaa !11
  store i32 %2, ptr %6, align 4, !tbaa !11
  %7 = load ptr, ptr %4, align 8, !tbaa !9
  %8 = load i32, ptr %5, align 4, !tbaa !11
  %9 = load i32, ptr %6, align 4, !tbaa !11
  %10 = call i32 @threaded_check_leading_path(ptr noundef @default_cache, ptr noundef %7, i32 noundef %8, i32 noundef %9)
  ret i32 %10
}