; Function Attrs: nounwind uwtable
define dso_local i32 @check_leading_path(ptr noundef %0, i32 noundef %1, i32 noundef %2) local_unnamed_addr #0 {
  %4 = alloca i32, align 4
  call void @llvm.lifetime.start.p0(i64 4, ptr nonnull %4) #11
  %5 = call fastcc i32 @lstat_cache_matchlen(ptr noundef nonnull @default_cache, ptr noundef %0, i32 noundef %1, ptr noundef %4, i32 noundef 7, i32 noundef 0)
  %6 = tail call ptr @__errno_location() #12
  %7 = load i32, ptr %6, align 4, !tbaa !4
  %8 = load i32, ptr %4, align 4, !tbaa !4
  %9 = and i32 %8, 2
  %.not.i = icmp eq i32 %9, 0
  br i1 %.not.i, label %10, label %threaded_check_leading_path.exit

10:                                               ; preds = %3
  %11 = and i32 %8, 1
  %.not10.i = icmp eq i32 %11, 0
  br i1 %.not10.i, label %12, label %threaded_check_leading_path.exit

12:                                               ; preds = %10
  %.not11.i = icmp eq i32 %2, 0
  %13 = and i32 %8, 8
  %.not12.i = icmp eq i32 %13, 0
  %or.cond.i = or i1 %.not11.i, %.not12.i
  br i1 %or.cond.i, label %threaded_check_leading_path.exit, label %14

14:                                               ; preds = %12
  %15 = sext i32 %5 to i64
  %16 = tail call ptr @xmemdupz(ptr noundef %0, i64 noundef %15) #11
  store i32 %7, ptr %6, align 4, !tbaa !4
  %17 = load i32, ptr @git_gettext_enabled, align 4, !tbaa !4
  %.not.i.i = icmp eq i32 %17, 0
  br i1 %.not.i.i, label %_.exit.i, label %18

18:                                               ; preds = %14
  %19 = tail call ptr @dcgettext(ptr noundef null, ptr noundef nonnull @.str, i32 noundef 5) #11
  br label %_.exit.i

_.exit.i:                                         ; preds = %18, %14
  %.0.i.i = phi ptr [ %19, %18 ], [ @.str, %14 ]
  tail call void (ptr, ...) @warning_errno(ptr noundef %.0.i.i, ptr noundef %16) #11
  tail call void @free(ptr noundef %16) #11
  br label %threaded_check_leading_path.exit

threaded_check_leading_path.exit:                 ; preds = %3, %10, %12, %_.exit.i
  %.0.i = phi i32 [ 0, %3 ], [ -1, %10 ], [ %5, %_.exit.i ], [ %5, %12 ]
  call void @llvm.lifetime.end.p0(i64 4, ptr nonnull %4) #11
  ret i32 %.0.i
}